target datalayout = "e-m:e-p270:32:32-p271:32:32-p272:64:64-i64:64-i128:128-f80:128-n8:16:32:64-S128"
target triple = "x86_64-pc-linux-gnu"

%struct.strbuf = type { i64, i64, ptr }
%struct.external_diff = type { ptr, i8 }
%struct.userdiff_funcname = type { ptr, ptr, i32 }
%struct.userdiff_driver = type { ptr, %struct.external_diff, ptr, ptr, i32, %struct.userdiff_funcname, ptr, ptr, ptr, ptr, ptr, ptr, i32 }

@__const.userdiff_get_textconv.name = private unnamed_addr constant %struct.strbuf { i64 0, i64 0, ptr @strbuf_slopbuf }, align 8
@.str.10 = private unnamed_addr constant [12 x i8] c"textconv/%s\00", align 1

; Function Attrs: nounwind uwtable
define dso_local ptr @userdiff_get_textconv(ptr noundef %0, ptr noundef %1) #0 {
  %3 = alloca ptr, align 8
  %4 = alloca ptr, align 8
  %5 = alloca ptr, align 8
  %6 = alloca ptr, align 8
  %7 = alloca %struct.strbuf, align 8
  store ptr %0, ptr %4, align 8, !tbaa !55
  store ptr %1, ptr %5, align 8, !tbaa !11
  %8 = load ptr, ptr %5, align 8, !tbaa !11
  %9 = getelementptr inbounds nuw %struct.userdiff_driver, ptr %8, i32 0, i32 9
  %10 = load ptr, ptr %9, align 8, !tbaa !23
  %11 = icmp ne ptr %10, null
  br i1 %11, label %13, label %12

12:                                               ; preds = %2
  store ptr null, ptr %3, align 8
  br label %43

13:                                               ; preds = %2
  %14 = load ptr, ptr %5, align 8, !tbaa !11
  %15 = getelementptr inbounds nuw %struct.userdiff_driver, ptr %14, i32 0, i32 12
  %16 = load i32, ptr %15, align 8, !tbaa !57
  %17 = icmp ne i32 %16, 0
  br i1 %17, label %18, label %41

18:                                               ; preds = %13
  %19 = load ptr, ptr %5, align 8, !tbaa !11
  %20 = getelementptr inbounds nuw %struct.userdiff_driver, ptr %19, i32 0, i32 11
  %21 = load ptr, ptr %20, align 8, !tbaa !58
  %22 = icmp ne ptr %21, null
  br i1 %22, label %41, label %23

23:                                               ; preds = %18
  %24 = call i32 @have_git_dir()
  %25 = icmp ne i32 %24, 0
  br i1 %25, label %26, label %41

26:                                               ; preds = %23
  call void @llvm.lifetime.start.p0(i64 8, ptr %6) #9
  %27 = call ptr @xmalloc(i64 noundef 64)
  store ptr %27, ptr %6, align 8, !tbaa !59
  call void @llvm.lifetime.start.p0(i64 24, ptr %7) #9
  call void @llvm.memcpy.p0.p0.i64(ptr align 8 %7, ptr align 8 @__const.userdiff_get_textconv.name, i64 24, i1 false)
  %28 = load ptr, ptr %5, align 8, !tbaa !11
  %29 = getelementptr inbounds nuw %struct.userdiff_driver, ptr %28, i32 0, i32 0
  %30 = load ptr, ptr %29, align 8, !tbaa !15
  call void (ptr, ptr, ...) @strbuf_addf(ptr noundef %7, ptr noundef @.str.10, ptr noundef %30)
  %31 = load ptr, ptr %4, align 8, !tbaa !55
  %32 = load ptr, ptr %6, align 8, !tbaa !59
  %33 = getelementptr inbounds nuw %struct.strbuf, ptr %7, i32 0, i32 2
  %34 = load ptr, ptr %33, align 8, !tbaa !60
  %35 = load ptr, ptr %5, align 8, !tbaa !11
  %36 = getelementptr inbounds nuw %struct.userdiff_driver, ptr %35, i32 0, i32 9
  %37 = load ptr, ptr %36, align 8, !tbaa !23
  call void @notes_cache_init(ptr noundef %31, ptr noundef %32, ptr noundef %34, ptr noundef %37)
  %38 = load ptr, ptr %6, align 8, !tbaa !59
  %39 = load ptr, ptr %5, align 8, !tbaa !11
  %40 = getelementptr inbounds nuw %struct.userdiff_driver, ptr %39, i32 0, i32 11
  store ptr %38, ptr %40, align 8, !tbaa !58
  call void @strbuf_release(ptr noundef %7)
  call void @llvm.lifetime.end.p0(i64 24, ptr %7) #9
  call void @llvm.lifetime.end.p0(i64 8, ptr %6) #9
  br label %41

41:                                               ; preds = %26, %23, %18, %13
  %42 = load ptr, ptr %5, align 8, !tbaa !11
  store ptr %42, ptr %3, align 8
  br label %43

43:                                               ; preds = %41, %12
  %44 = load ptr, ptr %3, align 8
  ret ptr %44
}