; Function Attrs: nounwind uwtable
define dso_local noundef ptr @userdiff_get_textconv(ptr noundef %0, ptr noundef %1) local_unnamed_addr #0 {
  %3 = alloca %struct.strbuf, align 8
  %4 = getelementptr inbounds nuw i8, ptr %1, i64 96
  %5 = load ptr, ptr %4, align 8, !tbaa !28
  %.not = icmp eq ptr %5, null
  br i1 %.not, label %20, label %6

6:                                                ; preds = %2
  %7 = getelementptr inbounds nuw i8, ptr %1, i64 120
  %8 = load i32, ptr %7, align 8, !tbaa !44
  %.not11 = icmp eq i32 %8, 0
  br i1 %.not11, label %20, label %9

9:                                                ; preds = %6
  %10 = getelementptr inbounds nuw i8, ptr %1, i64 112
  %11 = load ptr, ptr %10, align 8, !tbaa !45
  %.not12 = icmp eq ptr %11, null
  br i1 %.not12, label %12, label %20

12:                                               ; preds = %9
  %13 = tail call i32 @have_git_dir() #9
  %.not13 = icmp eq i32 %13, 0
  br i1 %.not13, label %20, label %14

14:                                               ; preds = %12
  %15 = tail call ptr @xmalloc(i64 noundef 64) #9
  call void @llvm.lifetime.start.p0(i64 24, ptr nonnull %3) #9
  call void @llvm.memcpy.p0.p0.i64(ptr noundef nonnull align 8 dereferenceable(24) %3, ptr noundef nonnull align 8 dereferenceable(24) @__const.userdiff_get_textconv.name, i64 24, i1 false)
  %16 = load ptr, ptr %1, align 8, !tbaa !15
  call void (ptr, ptr, ...) @strbuf_addf(ptr noundef nonnull %3, ptr noundef nonnull @.str.10, ptr noundef %16) #9
  %17 = getelementptr inbounds nuw i8, ptr %3, i64 16
  %18 = load ptr, ptr %17, align 8, !tbaa !46
  %19 = load ptr, ptr %4, align 8, !tbaa !28
  call void @notes_cache_init(ptr noundef %0, ptr noundef %15, ptr noundef %18, ptr noundef %19) #9
  store ptr %15, ptr %10, align 8, !tbaa !45
  call void @strbuf_release(ptr noundef nonnull %3) #9
  call void @llvm.lifetime.end.p0(i64 24, ptr nonnull %3) #9
  br label %20

20:                                               ; preds = %6, %9, %12, %14, %2
  %.0 = phi ptr [ null, %2 ], [ %1, %14 ], [ %1, %12 ], [ %1, %9 ], [ %1, %6 ]
  ret ptr %.0
}